
EjercicioMotor.elf:     file format elf32-avr

Sections:
Idx Name          Size      VMA       LMA       File off  Algn
  0 .data         00000000  00800100  00800100  00000716  2**0
                  CONTENTS, ALLOC, LOAD, DATA
  1 .text         000006c2  00000000  00000000  00000054  2**1
                  CONTENTS, ALLOC, LOAD, READONLY, CODE
  2 .comment      00000030  00000000  00000000  00000716  2**0
                  CONTENTS, READONLY
  3 .note.gnu.avr.deviceinfo 00000040  00000000  00000000  00000748  2**2
                  CONTENTS, READONLY
  4 .debug_aranges 000000e8  00000000  00000000  00000788  2**0
                  CONTENTS, READONLY, DEBUGGING
  5 .debug_info   000012e1  00000000  00000000  00000870  2**0
                  CONTENTS, READONLY, DEBUGGING
  6 .debug_abbrev 000008ca  00000000  00000000  00001b51  2**0
                  CONTENTS, READONLY, DEBUGGING
  7 .debug_line   000008da  00000000  00000000  0000241b  2**0
                  CONTENTS, READONLY, DEBUGGING
  8 .debug_frame  00000260  00000000  00000000  00002cf8  2**2
                  CONTENTS, READONLY, DEBUGGING
  9 .debug_str    00000534  00000000  00000000  00002f58  2**0
                  CONTENTS, READONLY, DEBUGGING
 10 .debug_loc    00000e0f  00000000  00000000  0000348c  2**0
                  CONTENTS, READONLY, DEBUGGING
 11 .debug_ranges 000000c8  00000000  00000000  0000429b  2**0
                  CONTENTS, READONLY, DEBUGGING

Disassembly of section .text:

00000000 <__vectors>:
   0:	0c 94 54 00 	jmp	0xa8	; 0xa8 <__ctors_end>
   4:	0c 94 5e 00 	jmp	0xbc	; 0xbc <__bad_interrupt>
   8:	0c 94 5e 00 	jmp	0xbc	; 0xbc <__bad_interrupt>
   c:	0c 94 5e 00 	jmp	0xbc	; 0xbc <__bad_interrupt>
  10:	0c 94 5e 00 	jmp	0xbc	; 0xbc <__bad_interrupt>
  14:	0c 94 5e 00 	jmp	0xbc	; 0xbc <__bad_interrupt>
  18:	0c 94 5e 00 	jmp	0xbc	; 0xbc <__bad_interrupt>
  1c:	0c 94 5e 00 	jmp	0xbc	; 0xbc <__bad_interrupt>
  20:	0c 94 5e 00 	jmp	0xbc	; 0xbc <__bad_interrupt>
  24:	0c 94 5e 00 	jmp	0xbc	; 0xbc <__bad_interrupt>
  28:	0c 94 5e 00 	jmp	0xbc	; 0xbc <__bad_interrupt>
  2c:	0c 94 5e 00 	jmp	0xbc	; 0xbc <__bad_interrupt>
  30:	0c 94 5e 00 	jmp	0xbc	; 0xbc <__bad_interrupt>
  34:	0c 94 5e 00 	jmp	0xbc	; 0xbc <__bad_interrupt>
  38:	0c 94 5e 00 	jmp	0xbc	; 0xbc <__bad_interrupt>
  3c:	0c 94 5e 00 	jmp	0xbc	; 0xbc <__bad_interrupt>
  40:	0c 94 5e 00 	jmp	0xbc	; 0xbc <__bad_interrupt>
  44:	0c 94 5e 00 	jmp	0xbc	; 0xbc <__bad_interrupt>
  48:	0c 94 5e 00 	jmp	0xbc	; 0xbc <__bad_interrupt>
  4c:	0c 94 5e 00 	jmp	0xbc	; 0xbc <__bad_interrupt>
  50:	0c 94 5e 00 	jmp	0xbc	; 0xbc <__bad_interrupt>
  54:	0c 94 5e 00 	jmp	0xbc	; 0xbc <__bad_interrupt>
  58:	0c 94 5e 00 	jmp	0xbc	; 0xbc <__bad_interrupt>
  5c:	0c 94 5e 00 	jmp	0xbc	; 0xbc <__bad_interrupt>
  60:	0c 94 5e 00 	jmp	0xbc	; 0xbc <__bad_interrupt>
  64:	0c 94 5e 00 	jmp	0xbc	; 0xbc <__bad_interrupt>

00000068 <LcdCustomChar>:
  68:	00 1f 00 00 00 00 1f 00 00 1f 10 10 10 10 1f 00     ................
  78:	00 1f 18 18 18 18 1f 00 00 1f 1c 1c 1c 1c 1f 00     ................
  88:	00 1f 1e 1e 1e 1e 1f 00 00 1f 1f 1f 1f 1f 1f 00     ................
  98:	03 07 0f 1f 0f 07 03 00 18 1c 1e 1f 1e 1c 18 00     ................

000000a8 <__ctors_end>:
  a8:	11 24       	eor	r1, r1
  aa:	1f be       	out	0x3f, r1	; 63
  ac:	cf ef       	ldi	r28, 0xFF	; 255
  ae:	d8 e0       	ldi	r29, 0x08	; 8
  b0:	de bf       	out	0x3e, r29	; 62
  b2:	cd bf       	out	0x3d, r28	; 61
  b4:	0e 94 c6 02 	call	0x58c	; 0x58c <main>
  b8:	0c 94 5f 03 	jmp	0x6be	; 0x6be <_exit>

000000bc <__bad_interrupt>:
  bc:	0c 94 00 00 	jmp	0	; 0x0 <__vectors>

000000c0 <LCDsendChar>:
{
	for (uint8_t i=0;i<n;i++)
	{
		LCDsendCommand(0x14);
	}
}
  c0:	65 b1       	in	r22, 0x05	; 5
  c2:	98 2f       	mov	r25, r24
  c4:	90 74       	andi	r25, 0x40	; 64
  c6:	49 2f       	mov	r20, r25
  c8:	50 e0       	ldi	r21, 0x00	; 0
  ca:	55 95       	asr	r21
  cc:	47 95       	ror	r20
  ce:	55 95       	asr	r21
  d0:	47 95       	ror	r20
  d2:	55 95       	asr	r21
  d4:	47 95       	ror	r20
  d6:	55 95       	asr	r21
  d8:	47 95       	ror	r20
  da:	98 2f       	mov	r25, r24
  dc:	90 78       	andi	r25, 0x80	; 128
  de:	29 2f       	mov	r18, r25
  e0:	30 e0       	ldi	r19, 0x00	; 0
  e2:	02 2e       	mov	r0, r18
  e4:	23 2f       	mov	r18, r19
  e6:	00 0c       	add	r0, r0
  e8:	22 1f       	adc	r18, r18
  ea:	33 0b       	sbc	r19, r19
  ec:	00 0c       	add	r0, r0
  ee:	22 1f       	adc	r18, r18
  f0:	33 1f       	adc	r19, r19
  f2:	96 2f       	mov	r25, r22
  f4:	99 7f       	andi	r25, 0xF9	; 249
  f6:	49 2b       	or	r20, r25
  f8:	24 2b       	or	r18, r20
  fa:	25 b9       	out	0x05, r18	; 5
  fc:	68 b1       	in	r22, 0x08	; 8
  fe:	98 2f       	mov	r25, r24
 100:	90 71       	andi	r25, 0x10	; 16
 102:	49 2f       	mov	r20, r25
 104:	50 e0       	ldi	r21, 0x00	; 0
 106:	55 95       	asr	r21
 108:	47 95       	ror	r20
 10a:	55 95       	asr	r21
 10c:	47 95       	ror	r20
 10e:	55 95       	asr	r21
 110:	47 95       	ror	r20
 112:	98 2f       	mov	r25, r24
 114:	90 72       	andi	r25, 0x20	; 32
 116:	29 2f       	mov	r18, r25
 118:	30 e0       	ldi	r19, 0x00	; 0
 11a:	35 95       	asr	r19
 11c:	27 95       	ror	r18
 11e:	35 95       	asr	r19
 120:	27 95       	ror	r18
 122:	35 95       	asr	r19
 124:	27 95       	ror	r18
 126:	96 2f       	mov	r25, r22
 128:	99 7f       	andi	r25, 0xF9	; 249
 12a:	49 2b       	or	r20, r25
 12c:	24 2b       	or	r18, r20
 12e:	28 b9       	out	0x08, r18	; 8
 130:	9b b1       	in	r25, 0x0b	; 11
 132:	92 60       	ori	r25, 0x02	; 2
 134:	9b b9       	out	0x0b, r25	; 11
 136:	9b b1       	in	r25, 0x0b	; 11
 138:	91 60       	ori	r25, 0x01	; 1
 13a:	9b b9       	out	0x0b, r25	; 11
 13c:	25 ed       	ldi	r18, 0xD5	; 213
 13e:	2a 95       	dec	r18
 140:	f1 f7       	brne	.-4      	; 0x13e <LCDsendChar+0x7e>
 142:	00 00       	nop
 144:	9b b1       	in	r25, 0x0b	; 11
 146:	9e 7f       	andi	r25, 0xFE	; 254
 148:	9b b9       	out	0x0b, r25	; 11
 14a:	9b b1       	in	r25, 0x0b	; 11
 14c:	9d 7f       	andi	r25, 0xFD	; 253
 14e:	9b b9       	out	0x0b, r25	; 11
 150:	95 ed       	ldi	r25, 0xD5	; 213
 152:	9a 95       	dec	r25
 154:	f1 f7       	brne	.-4      	; 0x152 <LCDsendChar+0x92>
 156:	00 00       	nop
 158:	65 b1       	in	r22, 0x05	; 5
 15a:	20 e1       	ldi	r18, 0x10	; 16
 15c:	82 9f       	mul	r24, r18
 15e:	c0 01       	movw	r24, r0
 160:	11 24       	eor	r1, r1
 162:	ac 01       	movw	r20, r24
 164:	40 74       	andi	r20, 0x40	; 64
 166:	55 27       	eor	r21, r21
 168:	55 95       	asr	r21
 16a:	47 95       	ror	r20
 16c:	55 95       	asr	r21
 16e:	47 95       	ror	r20
 170:	55 95       	asr	r21
 172:	47 95       	ror	r20
 174:	55 95       	asr	r21
 176:	47 95       	ror	r20
 178:	9c 01       	movw	r18, r24
 17a:	20 78       	andi	r18, 0x80	; 128
 17c:	33 27       	eor	r19, r19
 17e:	02 2e       	mov	r0, r18
 180:	23 2f       	mov	r18, r19
 182:	00 0c       	add	r0, r0
 184:	22 1f       	adc	r18, r18
 186:	33 0b       	sbc	r19, r19
 188:	00 0c       	add	r0, r0
 18a:	22 1f       	adc	r18, r18
 18c:	33 1f       	adc	r19, r19
 18e:	36 2f       	mov	r19, r22
 190:	39 7f       	andi	r19, 0xF9	; 249
 192:	43 2b       	or	r20, r19
 194:	24 2b       	or	r18, r20
 196:	25 b9       	out	0x05, r18	; 5
 198:	48 b1       	in	r20, 0x08	; 8
 19a:	9c 01       	movw	r18, r24
 19c:	20 71       	andi	r18, 0x10	; 16
 19e:	33 27       	eor	r19, r19
 1a0:	35 95       	asr	r19
 1a2:	27 95       	ror	r18
 1a4:	35 95       	asr	r19
 1a6:	27 95       	ror	r18
 1a8:	35 95       	asr	r19
 1aa:	27 95       	ror	r18
 1ac:	80 72       	andi	r24, 0x20	; 32
 1ae:	99 27       	eor	r25, r25
 1b0:	95 95       	asr	r25
 1b2:	87 95       	ror	r24
 1b4:	95 95       	asr	r25
 1b6:	87 95       	ror	r24
 1b8:	95 95       	asr	r25
 1ba:	87 95       	ror	r24
 1bc:	94 2f       	mov	r25, r20
 1be:	99 7f       	andi	r25, 0xF9	; 249
 1c0:	29 2b       	or	r18, r25
 1c2:	82 2b       	or	r24, r18
 1c4:	88 b9       	out	0x08, r24	; 8
 1c6:	8b b1       	in	r24, 0x0b	; 11
 1c8:	82 60       	ori	r24, 0x02	; 2
 1ca:	8b b9       	out	0x0b, r24	; 11
 1cc:	8b b1       	in	r24, 0x0b	; 11
 1ce:	81 60       	ori	r24, 0x01	; 1
 1d0:	8b b9       	out	0x0b, r24	; 11
 1d2:	85 ed       	ldi	r24, 0xD5	; 213
 1d4:	8a 95       	dec	r24
 1d6:	f1 f7       	brne	.-4      	; 0x1d4 <LCDsendChar+0x114>
 1d8:	00 00       	nop
 1da:	8b b1       	in	r24, 0x0b	; 11
 1dc:	8e 7f       	andi	r24, 0xFE	; 254
 1de:	8b b9       	out	0x0b, r24	; 11
 1e0:	8b b1       	in	r24, 0x0b	; 11
 1e2:	8d 7f       	andi	r24, 0xFD	; 253
 1e4:	8b b9       	out	0x0b, r24	; 11
 1e6:	95 ed       	ldi	r25, 0xD5	; 213
 1e8:	9a 95       	dec	r25
 1ea:	f1 f7       	brne	.-4      	; 0x1e8 <LCDsendChar+0x128>
 1ec:	00 00       	nop
 1ee:	08 95       	ret

000001f0 <LCDsendCommand>:
 1f0:	65 b1       	in	r22, 0x05	; 5
 1f2:	98 2f       	mov	r25, r24
 1f4:	90 74       	andi	r25, 0x40	; 64
 1f6:	49 2f       	mov	r20, r25
 1f8:	50 e0       	ldi	r21, 0x00	; 0
 1fa:	55 95       	asr	r21
 1fc:	47 95       	ror	r20
 1fe:	55 95       	asr	r21
 200:	47 95       	ror	r20
 202:	55 95       	asr	r21
 204:	47 95       	ror	r20
 206:	55 95       	asr	r21
 208:	47 95       	ror	r20
 20a:	98 2f       	mov	r25, r24
 20c:	90 78       	andi	r25, 0x80	; 128
 20e:	29 2f       	mov	r18, r25
 210:	30 e0       	ldi	r19, 0x00	; 0
 212:	02 2e       	mov	r0, r18
 214:	23 2f       	mov	r18, r19
 216:	00 0c       	add	r0, r0
 218:	22 1f       	adc	r18, r18
 21a:	33 0b       	sbc	r19, r19
 21c:	00 0c       	add	r0, r0
 21e:	22 1f       	adc	r18, r18
 220:	33 1f       	adc	r19, r19
 222:	96 2f       	mov	r25, r22
 224:	99 7f       	andi	r25, 0xF9	; 249
 226:	49 2b       	or	r20, r25
 228:	24 2b       	or	r18, r20
 22a:	25 b9       	out	0x05, r18	; 5
 22c:	68 b1       	in	r22, 0x08	; 8
 22e:	98 2f       	mov	r25, r24
 230:	90 71       	andi	r25, 0x10	; 16
 232:	49 2f       	mov	r20, r25
 234:	50 e0       	ldi	r21, 0x00	; 0
 236:	55 95       	asr	r21
 238:	47 95       	ror	r20
 23a:	55 95       	asr	r21
 23c:	47 95       	ror	r20
 23e:	55 95       	asr	r21
 240:	47 95       	ror	r20
 242:	98 2f       	mov	r25, r24
 244:	90 72       	andi	r25, 0x20	; 32
 246:	29 2f       	mov	r18, r25
 248:	30 e0       	ldi	r19, 0x00	; 0
 24a:	35 95       	asr	r19
 24c:	27 95       	ror	r18
 24e:	35 95       	asr	r19
 250:	27 95       	ror	r18
 252:	35 95       	asr	r19
 254:	27 95       	ror	r18
 256:	96 2f       	mov	r25, r22
 258:	99 7f       	andi	r25, 0xF9	; 249
 25a:	49 2b       	or	r20, r25
 25c:	24 2b       	or	r18, r20
 25e:	28 b9       	out	0x08, r18	; 8
 260:	9b b1       	in	r25, 0x0b	; 11
 262:	91 60       	ori	r25, 0x01	; 1
 264:	9b b9       	out	0x0b, r25	; 11
 266:	ef e9       	ldi	r30, 0x9F	; 159
 268:	ff e0       	ldi	r31, 0x0F	; 15
 26a:	31 97       	sbiw	r30, 0x01	; 1
 26c:	f1 f7       	brne	.-4      	; 0x26a <LCDsendCommand+0x7a>
 26e:	00 c0       	rjmp	.+0      	; 0x270 <LCDsendCommand+0x80>
 270:	00 00       	nop
 272:	9b b1       	in	r25, 0x0b	; 11
 274:	9e 7f       	andi	r25, 0xFE	; 254
 276:	9b b9       	out	0x0b, r25	; 11
 278:	ef e9       	ldi	r30, 0x9F	; 159
 27a:	ff e0       	ldi	r31, 0x0F	; 15
 27c:	31 97       	sbiw	r30, 0x01	; 1
 27e:	f1 f7       	brne	.-4      	; 0x27c <LCDsendCommand+0x8c>
 280:	00 c0       	rjmp	.+0      	; 0x282 <LCDsendCommand+0x92>
 282:	00 00       	nop
 284:	65 b1       	in	r22, 0x05	; 5
 286:	f0 e1       	ldi	r31, 0x10	; 16
 288:	8f 9f       	mul	r24, r31
 28a:	c0 01       	movw	r24, r0
 28c:	11 24       	eor	r1, r1
 28e:	ac 01       	movw	r20, r24
 290:	40 74       	andi	r20, 0x40	; 64
 292:	55 27       	eor	r21, r21
 294:	55 95       	asr	r21
 296:	47 95       	ror	r20
 298:	55 95       	asr	r21
 29a:	47 95       	ror	r20
 29c:	55 95       	asr	r21
 29e:	47 95       	ror	r20
 2a0:	55 95       	asr	r21
 2a2:	47 95       	ror	r20
 2a4:	9c 01       	movw	r18, r24
 2a6:	20 78       	andi	r18, 0x80	; 128
 2a8:	33 27       	eor	r19, r19
 2aa:	02 2e       	mov	r0, r18
 2ac:	23 2f       	mov	r18, r19
 2ae:	00 0c       	add	r0, r0
 2b0:	22 1f       	adc	r18, r18
 2b2:	33 0b       	sbc	r19, r19
 2b4:	00 0c       	add	r0, r0
 2b6:	22 1f       	adc	r18, r18
 2b8:	33 1f       	adc	r19, r19
 2ba:	36 2f       	mov	r19, r22
 2bc:	39 7f       	andi	r19, 0xF9	; 249
 2be:	43 2b       	or	r20, r19
 2c0:	24 2b       	or	r18, r20
 2c2:	25 b9       	out	0x05, r18	; 5
 2c4:	48 b1       	in	r20, 0x08	; 8
 2c6:	9c 01       	movw	r18, r24
 2c8:	20 71       	andi	r18, 0x10	; 16
 2ca:	33 27       	eor	r19, r19
 2cc:	35 95       	asr	r19
 2ce:	27 95       	ror	r18
 2d0:	35 95       	asr	r19
 2d2:	27 95       	ror	r18
 2d4:	35 95       	asr	r19
 2d6:	27 95       	ror	r18
 2d8:	80 72       	andi	r24, 0x20	; 32
 2da:	99 27       	eor	r25, r25
 2dc:	95 95       	asr	r25
 2de:	87 95       	ror	r24
 2e0:	95 95       	asr	r25
 2e2:	87 95       	ror	r24
 2e4:	95 95       	asr	r25
 2e6:	87 95       	ror	r24
 2e8:	94 2f       	mov	r25, r20
 2ea:	99 7f       	andi	r25, 0xF9	; 249
 2ec:	29 2b       	or	r18, r25
 2ee:	82 2b       	or	r24, r18
 2f0:	88 b9       	out	0x08, r24	; 8
 2f2:	8b b1       	in	r24, 0x0b	; 11
 2f4:	81 60       	ori	r24, 0x01	; 1
 2f6:	8b b9       	out	0x0b, r24	; 11
 2f8:	8f e9       	ldi	r24, 0x9F	; 159
 2fa:	9f e0       	ldi	r25, 0x0F	; 15
 2fc:	01 97       	sbiw	r24, 0x01	; 1
 2fe:	f1 f7       	brne	.-4      	; 0x2fc <LCDsendCommand+0x10c>
 300:	00 c0       	rjmp	.+0      	; 0x302 <LCDsendCommand+0x112>
 302:	00 00       	nop
 304:	8b b1       	in	r24, 0x0b	; 11
 306:	8e 7f       	andi	r24, 0xFE	; 254
 308:	8b b9       	out	0x0b, r24	; 11
 30a:	ef e9       	ldi	r30, 0x9F	; 159
 30c:	ff e0       	ldi	r31, 0x0F	; 15
 30e:	31 97       	sbiw	r30, 0x01	; 1
 310:	f1 f7       	brne	.-4      	; 0x30e <LCDsendCommand+0x11e>
 312:	00 c0       	rjmp	.+0      	; 0x314 <LCDsendCommand+0x124>
 314:	00 00       	nop
 316:	08 95       	ret

00000318 <LCDclr>:
 318:	81 e0       	ldi	r24, 0x01	; 1
 31a:	0e 94 f8 00 	call	0x1f0	; 0x1f0 <LCDsendCommand>
 31e:	08 95       	ret

00000320 <LCDstring>:
 320:	0f 93       	push	r16
 322:	1f 93       	push	r17
 324:	cf 93       	push	r28
 326:	df 93       	push	r29
 328:	00 97       	sbiw	r24, 0x00	; 0
 32a:	69 f0       	breq	.+26     	; 0x346 <LCDstring+0x26>
 32c:	d6 2f       	mov	r29, r22
 32e:	8c 01       	movw	r16, r24
 330:	c0 e0       	ldi	r28, 0x00	; 0
 332:	07 c0       	rjmp	.+14     	; 0x342 <LCDstring+0x22>
 334:	f8 01       	movw	r30, r16
 336:	ec 0f       	add	r30, r28
 338:	f1 1d       	adc	r31, r1
 33a:	80 81       	ld	r24, Z
 33c:	0e 94 60 00 	call	0xc0	; 0xc0 <LCDsendChar>
 340:	cf 5f       	subi	r28, 0xFF	; 255
 342:	cd 17       	cp	r28, r29
 344:	b8 f3       	brcs	.-18     	; 0x334 <LCDstring+0x14>
 346:	df 91       	pop	r29
 348:	cf 91       	pop	r28
 34a:	1f 91       	pop	r17
 34c:	0f 91       	pop	r16
 34e:	08 95       	ret

00000350 <LCDGotoXY>:
 350:	62 30       	cpi	r22, 0x02	; 2
 352:	31 f0       	breq	.+12     	; 0x360 <LCDGotoXY+0x10>
 354:	63 30       	cpi	r22, 0x03	; 3
 356:	31 f0       	breq	.+12     	; 0x364 <LCDGotoXY+0x14>
 358:	61 30       	cpi	r22, 0x01	; 1
 35a:	29 f4       	brne	.+10     	; 0x366 <LCDGotoXY+0x16>
 35c:	80 5c       	subi	r24, 0xC0	; 192
 35e:	03 c0       	rjmp	.+6      	; 0x366 <LCDGotoXY+0x16>
 360:	8c 5e       	subi	r24, 0xEC	; 236
 362:	01 c0       	rjmp	.+2      	; 0x366 <LCDGotoXY+0x16>
 364:	8c 5a       	subi	r24, 0xAC	; 172
 366:	80 68       	ori	r24, 0x80	; 128
 368:	0e 94 f8 00 	call	0x1f0	; 0x1f0 <LCDsendCommand>
 36c:	08 95       	ret

0000036e <LCDdefinechar>:
 36e:	ef 92       	push	r14
 370:	ff 92       	push	r15
 372:	0f 93       	push	r16
 374:	1f 93       	push	r17
 376:	cf 93       	push	r28
 378:	df 93       	push	r29
 37a:	7c 01       	movw	r14, r24
 37c:	86 2f       	mov	r24, r22
 37e:	90 e0       	ldi	r25, 0x00	; 0
 380:	88 0f       	add	r24, r24
 382:	99 1f       	adc	r25, r25
 384:	88 0f       	add	r24, r24
 386:	99 1f       	adc	r25, r25
 388:	88 0f       	add	r24, r24
 38a:	99 1f       	adc	r25, r25
 38c:	80 64       	ori	r24, 0x40	; 64
 38e:	c0 e0       	ldi	r28, 0x00	; 0
 390:	d0 e0       	ldi	r29, 0x00	; 0
 392:	0d c0       	rjmp	.+26     	; 0x3ae <LCDdefinechar+0x40>
 394:	f7 01       	movw	r30, r14
 396:	ec 0f       	add	r30, r28
 398:	fd 1f       	adc	r31, r29
 39a:	14 91       	lpm	r17, Z
 39c:	01 e0       	ldi	r16, 0x01	; 1
 39e:	08 0f       	add	r16, r24
 3a0:	0e 94 f8 00 	call	0x1f0	; 0x1f0 <LCDsendCommand>
 3a4:	81 2f       	mov	r24, r17
 3a6:	0e 94 60 00 	call	0xc0	; 0xc0 <LCDsendChar>
 3aa:	21 96       	adiw	r28, 0x01	; 1
 3ac:	80 2f       	mov	r24, r16
 3ae:	c8 30       	cpi	r28, 0x08	; 8
 3b0:	d1 05       	cpc	r29, r1
 3b2:	80 f3       	brcs	.-32     	; 0x394 <LCDdefinechar+0x26>
 3b4:	df 91       	pop	r29
 3b6:	cf 91       	pop	r28
 3b8:	1f 91       	pop	r17
 3ba:	0f 91       	pop	r16
 3bc:	ff 90       	pop	r15
 3be:	ef 90       	pop	r14
 3c0:	08 95       	ret

000003c2 <LCDinit>:
 3c2:	cf 93       	push	r28
 3c4:	df 93       	push	r29
 3c6:	8f e5       	ldi	r24, 0x5F	; 95
 3c8:	9a ee       	ldi	r25, 0xEA	; 234
 3ca:	01 97       	sbiw	r24, 0x01	; 1
 3cc:	f1 f7       	brne	.-4      	; 0x3ca <LCDinit+0x8>
 3ce:	00 c0       	rjmp	.+0      	; 0x3d0 <LCDinit+0xe>
 3d0:	00 00       	nop
 3d2:	85 b1       	in	r24, 0x05	; 5
 3d4:	89 7f       	andi	r24, 0xF9	; 249
 3d6:	85 b9       	out	0x05, r24	; 5
 3d8:	88 b1       	in	r24, 0x08	; 8
 3da:	89 7f       	andi	r24, 0xF9	; 249
 3dc:	88 b9       	out	0x08, r24	; 8
 3de:	1b b8       	out	0x0b, r1	; 11
 3e0:	87 b1       	in	r24, 0x07	; 7
 3e2:	86 60       	ori	r24, 0x06	; 6
 3e4:	87 b9       	out	0x07, r24	; 7
 3e6:	84 b1       	in	r24, 0x04	; 4
 3e8:	86 60       	ori	r24, 0x06	; 6
 3ea:	84 b9       	out	0x04, r24	; 4
 3ec:	84 b1       	in	r24, 0x04	; 4
 3ee:	86 60       	ori	r24, 0x06	; 6
 3f0:	84 b9       	out	0x04, r24	; 4
 3f2:	87 b1       	in	r24, 0x07	; 7
 3f4:	86 60       	ori	r24, 0x06	; 6
 3f6:	87 b9       	out	0x07, r24	; 7
 3f8:	8a b1       	in	r24, 0x0a	; 10
 3fa:	83 60       	ori	r24, 0x03	; 3
 3fc:	8a b9       	out	0x0a, r24	; 10
 3fe:	85 b1       	in	r24, 0x05	; 5
 400:	89 7f       	andi	r24, 0xF9	; 249
 402:	85 b9       	out	0x05, r24	; 5
 404:	88 b1       	in	r24, 0x08	; 8
 406:	86 60       	ori	r24, 0x06	; 6
 408:	88 b9       	out	0x08, r24	; 8
 40a:	8b b1       	in	r24, 0x0b	; 11
 40c:	81 60       	ori	r24, 0x01	; 1
 40e:	8b b9       	out	0x0b, r24	; 11
 410:	8f e9       	ldi	r24, 0x9F	; 159
 412:	9f e0       	ldi	r25, 0x0F	; 15
 414:	01 97       	sbiw	r24, 0x01	; 1
 416:	f1 f7       	brne	.-4      	; 0x414 <__EEPROM_REGION_LENGTH__+0x14>
 418:	00 c0       	rjmp	.+0      	; 0x41a <__EEPROM_REGION_LENGTH__+0x1a>
 41a:	00 00       	nop
 41c:	8b b1       	in	r24, 0x0b	; 11
 41e:	8e 7f       	andi	r24, 0xFE	; 254
 420:	8b b9       	out	0x0b, r24	; 11
 422:	8f e9       	ldi	r24, 0x9F	; 159
 424:	9f e0       	ldi	r25, 0x0F	; 15
 426:	01 97       	sbiw	r24, 0x01	; 1
 428:	f1 f7       	brne	.-4      	; 0x426 <__EEPROM_REGION_LENGTH__+0x26>
 42a:	00 c0       	rjmp	.+0      	; 0x42c <__EEPROM_REGION_LENGTH__+0x2c>
 42c:	00 00       	nop
 42e:	85 b1       	in	r24, 0x05	; 5
 430:	89 7f       	andi	r24, 0xF9	; 249
 432:	85 b9       	out	0x05, r24	; 5
 434:	88 b1       	in	r24, 0x08	; 8
 436:	86 60       	ori	r24, 0x06	; 6
 438:	88 b9       	out	0x08, r24	; 8
 43a:	8b b1       	in	r24, 0x0b	; 11
 43c:	81 60       	ori	r24, 0x01	; 1
 43e:	8b b9       	out	0x0b, r24	; 11
 440:	8f e9       	ldi	r24, 0x9F	; 159
 442:	9f e0       	ldi	r25, 0x0F	; 15
 444:	01 97       	sbiw	r24, 0x01	; 1
 446:	f1 f7       	brne	.-4      	; 0x444 <__EEPROM_REGION_LENGTH__+0x44>
 448:	00 c0       	rjmp	.+0      	; 0x44a <__EEPROM_REGION_LENGTH__+0x4a>
 44a:	00 00       	nop
 44c:	8b b1       	in	r24, 0x0b	; 11
 44e:	8e 7f       	andi	r24, 0xFE	; 254
 450:	8b b9       	out	0x0b, r24	; 11
 452:	8f e9       	ldi	r24, 0x9F	; 159
 454:	9f e0       	ldi	r25, 0x0F	; 15
 456:	01 97       	sbiw	r24, 0x01	; 1
 458:	f1 f7       	brne	.-4      	; 0x456 <__EEPROM_REGION_LENGTH__+0x56>
 45a:	00 c0       	rjmp	.+0      	; 0x45c <__EEPROM_REGION_LENGTH__+0x5c>
 45c:	00 00       	nop
 45e:	85 b1       	in	r24, 0x05	; 5
 460:	89 7f       	andi	r24, 0xF9	; 249
 462:	85 b9       	out	0x05, r24	; 5
 464:	88 b1       	in	r24, 0x08	; 8
 466:	89 7f       	andi	r24, 0xF9	; 249
 468:	84 60       	ori	r24, 0x04	; 4
 46a:	88 b9       	out	0x08, r24	; 8
 46c:	8b b1       	in	r24, 0x0b	; 11
 46e:	81 60       	ori	r24, 0x01	; 1
 470:	8b b9       	out	0x0b, r24	; 11
 472:	8f e9       	ldi	r24, 0x9F	; 159
 474:	9f e0       	ldi	r25, 0x0F	; 15
 476:	01 97       	sbiw	r24, 0x01	; 1
 478:	f1 f7       	brne	.-4      	; 0x476 <__EEPROM_REGION_LENGTH__+0x76>
 47a:	00 c0       	rjmp	.+0      	; 0x47c <__EEPROM_REGION_LENGTH__+0x7c>
 47c:	00 00       	nop
 47e:	8b b1       	in	r24, 0x0b	; 11
 480:	8e 7f       	andi	r24, 0xFE	; 254
 482:	8b b9       	out	0x0b, r24	; 11
 484:	8f e9       	ldi	r24, 0x9F	; 159
 486:	9f e0       	ldi	r25, 0x0F	; 15
 488:	01 97       	sbiw	r24, 0x01	; 1
 48a:	f1 f7       	brne	.-4      	; 0x488 <__EEPROM_REGION_LENGTH__+0x88>
 48c:	00 c0       	rjmp	.+0      	; 0x48e <__EEPROM_REGION_LENGTH__+0x8e>
 48e:	00 00       	nop
 490:	88 e2       	ldi	r24, 0x28	; 40
 492:	0e 94 f8 00 	call	0x1f0	; 0x1f0 <LCDsendCommand>
 496:	8c e0       	ldi	r24, 0x0C	; 12
 498:	0e 94 f8 00 	call	0x1f0	; 0x1f0 <LCDsendCommand>
 49c:	60 e0       	ldi	r22, 0x00	; 0
 49e:	c0 e0       	ldi	r28, 0x00	; 0
 4a0:	0a c0       	rjmp	.+20     	; 0x4b6 <__EEPROM_REGION_LENGTH__+0xb6>
 4a2:	d1 e0       	ldi	r29, 0x01	; 1
 4a4:	d6 0f       	add	r29, r22
 4a6:	8c 2f       	mov	r24, r28
 4a8:	90 e0       	ldi	r25, 0x00	; 0
 4aa:	88 59       	subi	r24, 0x98	; 152
 4ac:	9f 4f       	sbci	r25, 0xFF	; 255
 4ae:	0e 94 b7 01 	call	0x36e	; 0x36e <LCDdefinechar>
 4b2:	c8 5f       	subi	r28, 0xF8	; 248
 4b4:	6d 2f       	mov	r22, r29
 4b6:	c0 34       	cpi	r28, 0x40	; 64
 4b8:	a0 f3       	brcs	.-24     	; 0x4a2 <__EEPROM_REGION_LENGTH__+0xa2>
 4ba:	df 91       	pop	r29
 4bc:	cf 91       	pop	r28
 4be:	08 95       	ret

000004c0 <LCDescribeDato>:


//**********   Inicio de Comando Agregado por Fido

void LCDescribeDato(int val,unsigned int field_length)
{
 4c0:	ef 92       	push	r14
 4c2:	ff 92       	push	r15
 4c4:	0f 93       	push	r16
 4c6:	1f 93       	push	r17
 4c8:	cf 93       	push	r28
 4ca:	df 93       	push	r29
 4cc:	00 d0       	rcall	.+0      	; 0x4ce <LCDescribeDato+0xe>
 4ce:	00 d0       	rcall	.+0      	; 0x4d0 <LCDescribeDato+0x10>
 4d0:	1f 92       	push	r1
 4d2:	cd b7       	in	r28, 0x3d	; 61
 4d4:	de b7       	in	r29, 0x3e	; 62
 4d6:	7b 01       	movw	r14, r22
	2)unsigned int field_length :total length of field in which the value is printed
	must be between 1-5 if it is -1 the field length is no of digits in the val

	****************************************************************/

	char str[5]={0,0,0,0,0};
 4d8:	fe 01       	movw	r30, r28
 4da:	31 96       	adiw	r30, 0x01	; 1
 4dc:	25 e0       	ldi	r18, 0x05	; 5
 4de:	df 01       	movw	r26, r30
 4e0:	1d 92       	st	X+, r1
 4e2:	2a 95       	dec	r18
 4e4:	e9 f7       	brne	.-6      	; 0x4e0 <LCDescribeDato+0x20>
	int i=4,j=0;
 4e6:	24 e0       	ldi	r18, 0x04	; 4
 4e8:	30 e0       	ldi	r19, 0x00	; 0
	while(val)
 4ea:	0f c0       	rjmp	.+30     	; 0x50a <LCDescribeDato+0x4a>
	{
	str[i]=val%10;
 4ec:	6a e0       	ldi	r22, 0x0A	; 10
 4ee:	70 e0       	ldi	r23, 0x00	; 0
 4f0:	0e 94 15 03 	call	0x62a	; 0x62a <__divmodhi4>
 4f4:	e1 e0       	ldi	r30, 0x01	; 1
 4f6:	f0 e0       	ldi	r31, 0x00	; 0
 4f8:	ec 0f       	add	r30, r28
 4fa:	fd 1f       	adc	r31, r29
 4fc:	e2 0f       	add	r30, r18
 4fe:	f3 1f       	adc	r31, r19
 500:	80 83       	st	Z, r24
	val=val/10;
 502:	86 2f       	mov	r24, r22
 504:	97 2f       	mov	r25, r23
	i--;
 506:	21 50       	subi	r18, 0x01	; 1
 508:	31 09       	sbc	r19, r1

	****************************************************************/

	char str[5]={0,0,0,0,0};
	int i=4,j=0;
	while(val)
 50a:	00 97       	sbiw	r24, 0x00	; 0
 50c:	79 f7       	brne	.-34     	; 0x4ec <LCDescribeDato+0x2c>
	{
	str[i]=val%10;
	val=val/10;
	i--;
	}
	if(field_length==-1)
 50e:	bf ef       	ldi	r27, 0xFF	; 255
 510:	eb 16       	cp	r14, r27
 512:	fb 06       	cpc	r15, r27
 514:	81 f4       	brne	.+32     	; 0x536 <LCDescribeDato+0x76>
 516:	03 c0       	rjmp	.+6      	; 0x51e <LCDescribeDato+0x5e>
		while(str[j]==0) j++;
 518:	0f 5f       	subi	r16, 0xFF	; 255
 51a:	1f 4f       	sbci	r17, 0xFF	; 255
 51c:	02 c0       	rjmp	.+4      	; 0x522 <LCDescribeDato+0x62>
 51e:	00 e0       	ldi	r16, 0x00	; 0
 520:	10 e0       	ldi	r17, 0x00	; 0
 522:	e1 e0       	ldi	r30, 0x01	; 1
 524:	f0 e0       	ldi	r31, 0x00	; 0
 526:	ec 0f       	add	r30, r28
 528:	fd 1f       	adc	r31, r29
 52a:	e0 0f       	add	r30, r16
 52c:	f1 1f       	adc	r31, r17
 52e:	20 81       	ld	r18, Z
 530:	22 23       	and	r18, r18
 532:	91 f3       	breq	.-28     	; 0x518 <LCDescribeDato+0x58>
 534:	04 c0       	rjmp	.+8      	; 0x53e <LCDescribeDato+0x7e>
	else
		j=5-field_length;
 536:	05 e0       	ldi	r16, 0x05	; 5
 538:	10 e0       	ldi	r17, 0x00	; 0
 53a:	0e 19       	sub	r16, r14
 53c:	1f 09       	sbc	r17, r15

	if(val<0) LCDsendChar('-');
 53e:	99 23       	and	r25, r25
 540:	84 f4       	brge	.+32     	; 0x562 <LCDescribeDato+0xa2>
 542:	8d e2       	ldi	r24, 0x2D	; 45
 544:	0e 94 60 00 	call	0xc0	; 0xc0 <LCDsendChar>
 548:	0c c0       	rjmp	.+24     	; 0x562 <LCDescribeDato+0xa2>
	for(i=j;i<5;i++)
	{
	LCDsendChar(48+str[i]);
 54a:	e1 e0       	ldi	r30, 0x01	; 1
 54c:	f0 e0       	ldi	r31, 0x00	; 0
 54e:	ec 0f       	add	r30, r28
 550:	fd 1f       	adc	r31, r29
 552:	e0 0f       	add	r30, r16
 554:	f1 1f       	adc	r31, r17
 556:	80 81       	ld	r24, Z
 558:	80 5d       	subi	r24, 0xD0	; 208
 55a:	0e 94 60 00 	call	0xc0	; 0xc0 <LCDsendChar>
		while(str[j]==0) j++;
	else
		j=5-field_length;

	if(val<0) LCDsendChar('-');
	for(i=j;i<5;i++)
 55e:	0f 5f       	subi	r16, 0xFF	; 255
 560:	1f 4f       	sbci	r17, 0xFF	; 255
 562:	05 30       	cpi	r16, 0x05	; 5
 564:	11 05       	cpc	r17, r1
 566:	8c f3       	brlt	.-30     	; 0x54a <LCDescribeDato+0x8a>
	{
	LCDsendChar(48+str[i]);
	}
}
 568:	0f 90       	pop	r0
 56a:	0f 90       	pop	r0
 56c:	0f 90       	pop	r0
 56e:	0f 90       	pop	r0
 570:	0f 90       	pop	r0
 572:	df 91       	pop	r29
 574:	cf 91       	pop	r28
 576:	1f 91       	pop	r17
 578:	0f 91       	pop	r16
 57a:	ff 90       	pop	r15
 57c:	ef 90       	pop	r14
 57e:	08 95       	ret

00000580 <estadoFlag>:
	return 1;
}

static uint8_t estadoFlag()
{
	return TIFR1 & (1<<ICF1);
 580:	86 b3       	in	r24, 0x16	; 22
}
 582:	80 72       	andi	r24, 0x20	; 32
 584:	08 95       	ret

00000586 <borrarFlag>:

static void borrarFlag()
{
	TIFR1 = (1<<ICF1);
 586:	80 e2       	ldi	r24, 0x20	; 32
 588:	86 bb       	out	0x16, r24	; 22
 58a:	08 95       	ret

0000058c <main>:

static uint8_t estadoFlag();
static void borrarFlag();

int main(void)
{
 58c:	cf 93       	push	r28
 58e:	df 93       	push	r29
 590:	00 d0       	rcall	.+0      	; 0x592 <main+0x6>
 592:	00 d0       	rcall	.+0      	; 0x594 <main+0x8>
 594:	cd b7       	in	r28, 0x3d	; 61
 596:	de b7       	in	r29, 0x3e	; 62
	/* Setup */
	uint16_t t, periodo;
	
	// Configuración del puerto conectado al motor (PB0 es entrada)
	DDRB &= ~(1<<PORTB0);
 598:	84 b1       	in	r24, 0x04	; 4
 59a:	8e 7f       	andi	r24, 0xFE	; 254
 59c:	84 b9       	out	0x04, r24	; 4
	
	// Configuración en modo normal, prescaler de 8 (16 MHz a 2 MHz)
	TCCR1A = 0;
 59e:	10 92 80 00 	sts	0x0080, r1	; 0x800080 <__TEXT_REGION_LENGTH__+0x7f8080>
	if (PREESCALER == 1) TCCR1B = (1<<ICES1) | (1<<CS10);
	else if (PREESCALER == 8) TCCR1B = (1<<ICES1)|(1<<CS11);
 5a2:	82 e4       	ldi	r24, 0x42	; 66
 5a4:	80 93 81 00 	sts	0x0081, r24	; 0x800081 <__TEXT_REGION_LENGTH__+0x7f8081>
	
	// Inicialización de LCD
	LCDinit();
 5a8:	0e 94 e1 01 	call	0x3c2	; 0x3c2 <LCDinit>
	LCDclr();
 5ac:	0e 94 8c 01 	call	0x318	; 0x318 <LCDclr>
	
	// Asumiendo numero de 3 cifras, escribo unidad al final del mismo
	uint8_t mensaje[] = "RPM";
 5b0:	82 e5       	ldi	r24, 0x52	; 82
 5b2:	90 e5       	ldi	r25, 0x50	; 80
 5b4:	9a 83       	std	Y+2, r25	; 0x02
 5b6:	89 83       	std	Y+1, r24	; 0x01
 5b8:	8d e4       	ldi	r24, 0x4D	; 77
 5ba:	90 e0       	ldi	r25, 0x00	; 0
 5bc:	9c 83       	std	Y+4, r25	; 0x04
 5be:	8b 83       	std	Y+3, r24	; 0x03
	LCDGotoXY(4,0);
 5c0:	60 e0       	ldi	r22, 0x00	; 0
 5c2:	84 e0       	ldi	r24, 0x04	; 4
 5c4:	0e 94 a8 01 	call	0x350	; 0x350 <LCDGotoXY>
	LCDstring(mensaje, 3);
 5c8:	63 e0       	ldi	r22, 0x03	; 3
 5ca:	ce 01       	movw	r24, r28
 5cc:	01 96       	adiw	r24, 0x01	; 1
 5ce:	0e 94 90 01 	call	0x320	; 0x320 <LCDstring>
	
    /* Loop */
    while (1) 
    {
		// esperar por primer flanco
		while(estadoFlag()==0);
 5d2:	0e 94 c0 02 	call	0x580	; 0x580 <estadoFlag>
 5d6:	88 23       	and	r24, r24
 5d8:	e1 f3       	breq	.-8      	; 0x5d2 <main+0x46>
		t = ICR1;
 5da:	00 91 86 00 	lds	r16, 0x0086	; 0x800086 <__TEXT_REGION_LENGTH__+0x7f8086>
 5de:	10 91 87 00 	lds	r17, 0x0087	; 0x800087 <__TEXT_REGION_LENGTH__+0x7f8087>
		borrarFlag();
 5e2:	0e 94 c3 02 	call	0x586	; 0x586 <borrarFlag>
		
		// esperar por segundo flanco
		while(estadoFlag()==0);
 5e6:	0e 94 c0 02 	call	0x580	; 0x580 <estadoFlag>
 5ea:	88 23       	and	r24, r24
 5ec:	e1 f3       	breq	.-8      	; 0x5e6 <main+0x5a>
		periodo = ICR1-t;
 5ee:	20 91 86 00 	lds	r18, 0x0086	; 0x800086 <__TEXT_REGION_LENGTH__+0x7f8086>
 5f2:	30 91 87 00 	lds	r19, 0x0087	; 0x800087 <__TEXT_REGION_LENGTH__+0x7f8087>
 5f6:	c9 01       	movw	r24, r18
 5f8:	80 1b       	sub	r24, r16
 5fa:	91 0b       	sbc	r25, r17
 5fc:	8c 01       	movw	r16, r24
		borrarFlag();
 5fe:	0e 94 c3 02 	call	0x586	; 0x586 <borrarFlag>
		
		LCDGotoXY(0,0);
 602:	60 e0       	ldi	r22, 0x00	; 0
 604:	80 e0       	ldi	r24, 0x00	; 0
 606:	0e 94 a8 01 	call	0x350	; 0x350 <LCDGotoXY>
		uint8_t aux = CONVERSION / (periodo);
 60a:	98 01       	movw	r18, r16
 60c:	40 e0       	ldi	r20, 0x00	; 0
 60e:	50 e0       	ldi	r21, 0x00	; 0
 610:	60 e0       	ldi	r22, 0x00	; 0
 612:	7e e3       	ldi	r23, 0x3E	; 62
 614:	89 e4       	ldi	r24, 0x49	; 73
 616:	90 e0       	ldi	r25, 0x00	; 0
 618:	0e 94 29 03 	call	0x652	; 0x652 <__udivmodsi4>
		LCDescribeDato(aux,3);
 61c:	63 e0       	ldi	r22, 0x03	; 3
 61e:	70 e0       	ldi	r23, 0x00	; 0
 620:	82 2f       	mov	r24, r18
 622:	90 e0       	ldi	r25, 0x00	; 0
 624:	0e 94 60 02 	call	0x4c0	; 0x4c0 <LCDescribeDato>
    }
 628:	d4 cf       	rjmp	.-88     	; 0x5d2 <main+0x46>

0000062a <__divmodhi4>:
 62a:	97 fb       	bst	r25, 7
 62c:	07 2e       	mov	r0, r23
 62e:	16 f4       	brtc	.+4      	; 0x634 <__divmodhi4+0xa>
 630:	00 94       	com	r0
 632:	07 d0       	rcall	.+14     	; 0x642 <__divmodhi4_neg1>
 634:	77 fd       	sbrc	r23, 7
 636:	09 d0       	rcall	.+18     	; 0x64a <__divmodhi4_neg2>
 638:	0e 94 4b 03 	call	0x696	; 0x696 <__udivmodhi4>
 63c:	07 fc       	sbrc	r0, 7
 63e:	05 d0       	rcall	.+10     	; 0x64a <__divmodhi4_neg2>
 640:	3e f4       	brtc	.+14     	; 0x650 <__divmodhi4_exit>

00000642 <__divmodhi4_neg1>:
 642:	90 95       	com	r25
 644:	81 95       	neg	r24
 646:	9f 4f       	sbci	r25, 0xFF	; 255
 648:	08 95       	ret

0000064a <__divmodhi4_neg2>:
 64a:	70 95       	com	r23
 64c:	61 95       	neg	r22
 64e:	7f 4f       	sbci	r23, 0xFF	; 255

00000650 <__divmodhi4_exit>:
 650:	08 95       	ret

00000652 <__udivmodsi4>:
 652:	a1 e2       	ldi	r26, 0x21	; 33
 654:	1a 2e       	mov	r1, r26
 656:	aa 1b       	sub	r26, r26
 658:	bb 1b       	sub	r27, r27
 65a:	fd 01       	movw	r30, r26
 65c:	0d c0       	rjmp	.+26     	; 0x678 <__udivmodsi4_ep>

0000065e <__udivmodsi4_loop>:
 65e:	aa 1f       	adc	r26, r26
 660:	bb 1f       	adc	r27, r27
 662:	ee 1f       	adc	r30, r30
 664:	ff 1f       	adc	r31, r31
 666:	a2 17       	cp	r26, r18
 668:	b3 07       	cpc	r27, r19
 66a:	e4 07       	cpc	r30, r20
 66c:	f5 07       	cpc	r31, r21
 66e:	20 f0       	brcs	.+8      	; 0x678 <__udivmodsi4_ep>
 670:	a2 1b       	sub	r26, r18
 672:	b3 0b       	sbc	r27, r19
 674:	e4 0b       	sbc	r30, r20
 676:	f5 0b       	sbc	r31, r21

00000678 <__udivmodsi4_ep>:
 678:	66 1f       	adc	r22, r22
 67a:	77 1f       	adc	r23, r23
 67c:	88 1f       	adc	r24, r24
 67e:	99 1f       	adc	r25, r25
 680:	1a 94       	dec	r1
 682:	69 f7       	brne	.-38     	; 0x65e <__udivmodsi4_loop>
 684:	60 95       	com	r22
 686:	70 95       	com	r23
 688:	80 95       	com	r24
 68a:	90 95       	com	r25
 68c:	9b 01       	movw	r18, r22
 68e:	ac 01       	movw	r20, r24
 690:	bd 01       	movw	r22, r26
 692:	cf 01       	movw	r24, r30
 694:	08 95       	ret

00000696 <__udivmodhi4>:
 696:	aa 1b       	sub	r26, r26
 698:	bb 1b       	sub	r27, r27
 69a:	51 e1       	ldi	r21, 0x11	; 17
 69c:	07 c0       	rjmp	.+14     	; 0x6ac <__udivmodhi4_ep>

0000069e <__udivmodhi4_loop>:
 69e:	aa 1f       	adc	r26, r26
 6a0:	bb 1f       	adc	r27, r27
 6a2:	a6 17       	cp	r26, r22
 6a4:	b7 07       	cpc	r27, r23
 6a6:	10 f0       	brcs	.+4      	; 0x6ac <__udivmodhi4_ep>
 6a8:	a6 1b       	sub	r26, r22
 6aa:	b7 0b       	sbc	r27, r23

000006ac <__udivmodhi4_ep>:
 6ac:	88 1f       	adc	r24, r24
 6ae:	99 1f       	adc	r25, r25
 6b0:	5a 95       	dec	r21
 6b2:	a9 f7       	brne	.-22     	; 0x69e <__udivmodhi4_loop>
 6b4:	80 95       	com	r24
 6b6:	90 95       	com	r25
 6b8:	bc 01       	movw	r22, r24
 6ba:	cd 01       	movw	r24, r26
 6bc:	08 95       	ret

000006be <_exit>:
 6be:	f8 94       	cli

000006c0 <__stop_program>:
 6c0:	ff cf       	rjmp	.-2      	; 0x6c0 <__stop_program>
